target datalayout = "e-m:e-p270:32:32-p271:32:32-p272:64:64-i64:64-i128:128-f80:128-n8:16:32:64-S128"
target triple = "x86_64-pc-linux-gnu"

; Function Attrs: mustprogress nounwind uwtable
define hidden noundef i32 @_ZN2os11next_randomEj(i32 noundef %0) #1 align 2 {
  %2 = alloca i32, align 4
  %3 = alloca i32, align 4
  %4 = alloca i32, align 4
  %5 = alloca i32, align 4
  %6 = alloca i32, align 4
  %7 = alloca i32, align 4
  %8 = alloca i32, align 4
  store i32 %0, ptr %2, align 4
  store i32 16807, ptr %3, align 4
  store i32 2147483647, ptr %4, align 4
  store i32 127773, ptr %5, align 4
  store i32 2836, ptr %6, align 4
  %9 = load i32, ptr %2, align 4
  %10 = and i32 %9, 65535
  %11 = mul i32 16807, %10
  store i32 %11, ptr %7, align 4
  %12 = load i32, ptr %2, align 4
  %13 = lshr i32 %12, 16
  %14 = mul i32 16807, %13
  store i32 %14, ptr %8, align 4
  %15 = load i32, ptr %8, align 4
  %16 = and i32 %15, 32767
  %17 = shl i32 %16, 16
  %18 = load i32, ptr %7, align 4
  %19 = add i32 %18, %17
  store i32 %19, ptr %7, align 4
  %20 = load i32, ptr %7, align 4
  %21 = icmp ugt i32 %20, 2147483647
  br i1 %21, label %22, label %27

22:                                               ; preds = %1
  %23 = load i32, ptr %7, align 4
  %24 = and i32 %23, 2147483647
  store i32 %24, ptr %7, align 4
  %25 = load i32, ptr %7, align 4
  %26 = add i32 %25, 1
  store i32 %26, ptr %7, align 4
  br label %27

27:                                               ; preds = %22, %1
  %28 = load i32, ptr %8, align 4
  %29 = lshr i32 %28, 15
  %30 = load i32, ptr %7, align 4
  %31 = add i32 %30, %29
  store i32 %31, ptr %7, align 4
  %32 = load i32, ptr %7, align 4
  %33 = icmp ugt i32 %32, 2147483647
  br i1 %33, label %34, label %39

34:                                               ; preds = %27
  %35 = load i32, ptr %7, align 4
  %36 = and i32 %35, 2147483647
  store i32 %36, ptr %7, align 4
  %37 = load i32, ptr %7, align 4
  %38 = add i32 %37, 1
  store i32 %38, ptr %7, align 4
  br label %39

39:                                               ; preds = %34, %27
  %40 = load i32, ptr %7, align 4
  ret i32 %40
}