; Function Attrs: mustprogress nofree norecurse nosync nounwind willreturn memory(none) uwtable
define hidden noundef range(i32 0, -2147483648) i32 @_ZN2os11next_randomEj(i32 noundef %0) local_unnamed_addr #14 align 2 {
  %2 = and i32 %0, 65535
  %3 = mul nuw nsw i32 %2, 16807
  %4 = lshr i32 %0, 16
  %5 = mul nuw nsw i32 %4, 16807
  %6 = mul i32 %4, 1101463552
  %7 = and i32 %6, 2147418112
  %8 = add nuw i32 %7, %3
  %9 = icmp slt i32 %8, 0
  %10 = and i32 %8, 2147483647
  %11 = add nuw i32 %10, 1
  %.0 = select i1 %9, i32 %11, i32 %8
  %12 = lshr i32 %5, 15
  %13 = add nuw i32 %.0, %12
  %14 = icmp slt i32 %13, 0
  %15 = and i32 %13, 2147483647
  %16 = add nuw nsw i32 %15, 1
  %.1 = select i1 %14, i32 %16, i32 %13
  ret i32 %.1
}